; Function Attrs: nofree nounwind uwtable
define noalias noundef ptr @Str_ManCreateRoots(ptr noundef readonly captures(none) %0, i32 noundef %1) local_unnamed_addr #8 {
  %3 = tail call noalias dereferenceable_or_null(16) ptr @malloc(i64 noundef 16) #28
  %4 = add i32 %1, -1
  %or.cond.i.i = icmp ult i32 %4, 15
  %spec.store.select.i.i = select i1 %or.cond.i.i, i32 16, i32 %1
  %5 = getelementptr inbounds nuw i8, ptr %3, i64 4
  store i32 %spec.store.select.i.i, ptr %3, align 8, !tbaa !47
  %.not.i.i = icmp eq i32 %spec.store.select.i.i, 0
  br i1 %.not.i.i, label %Vec_IntAlloc.exit.thread.i, label %Vec_IntAlloc.exit.i

Vec_IntAlloc.exit.thread.i:                       ; preds = %2
  %6 = getelementptr inbounds nuw i8, ptr %3, i64 8
  store ptr null, ptr %6, align 8, !tbaa !36
  store i32 %1, ptr %5, align 4, !tbaa !45
  br label %Vec_IntStartFull.exit

Vec_IntAlloc.exit.i:                              ; preds = %2
  %7 = sext i32 %spec.store.select.i.i to i64
  %8 = shl nsw i64 %7, 2
  %9 = tail call noalias ptr @malloc(i64 noundef %8) #28
  %10 = getelementptr inbounds nuw i8, ptr %3, i64 8
  store ptr %9, ptr %10, align 8, !tbaa !36
  store i32 %1, ptr %5, align 4, !tbaa !45
  %.not.i = icmp eq ptr %9, null
  br i1 %.not.i, label %Vec_IntStartFull.exit, label %11

11:                                               ; preds = %Vec_IntAlloc.exit.i
  %12 = sext i32 %1 to i64
  %13 = shl nsw i64 %12, 2
  tail call void @llvm.memset.p0.i64(ptr nonnull align 4 %9, i8 -1, i64 %13, i1 false)
  br label %Vec_IntStartFull.exit

Vec_IntStartFull.exit:                            ; preds = %Vec_IntAlloc.exit.thread.i, %Vec_IntAlloc.exit.i, %11
  %.val20 = phi ptr [ null, %Vec_IntAlloc.exit.thread.i ], [ null, %Vec_IntAlloc.exit.i ], [ %9, %11 ]
  %14 = getelementptr i8, ptr %0, i64 4
  %.val1923 = load i32, ptr %14, align 4, !tbaa !78
  %15 = icmp sgt i32 %.val1923, 0
  br i1 %15, label %.lr.ph25, label %.critedge

.lr.ph25:                                         ; preds = %Vec_IntStartFull.exit
  %16 = getelementptr i8, ptr %0, i64 8
  %.val18 = load ptr, ptr %16, align 8, !tbaa !77
  %17 = zext nneg i32 %.val1923 to i64
  br label %18

18:                                               ; preds = %.lr.ph25, %.critedge2
  %indvars.iv27 = phi i64 [ 0, %.lr.ph25 ], [ %indvars.iv.next28, %.critedge2 ]
  %19 = getelementptr inbounds nuw %struct.Vec_Int_t_, ptr %.val18, i64 %indvars.iv27
  %20 = getelementptr i8, ptr %19, i64 4
  %.val21 = load i32, ptr %20, align 4, !tbaa !45
  %21 = icmp sgt i32 %.val21, 0
  br i1 %21, label %.lr.ph, label %.critedge2

.lr.ph:                                           ; preds = %18
  %22 = getelementptr i8, ptr %19, i64 8
  %.val17 = load ptr, ptr %22, align 8, !tbaa !36
  %23 = trunc nuw nsw i64 %indvars.iv27 to i32
  br label %24

24:                                               ; preds = %.lr.ph, %24
  %indvars.iv = phi i64 [ 0, %.lr.ph ], [ %indvars.iv.next, %24 ]
  %25 = getelementptr inbounds nuw i32, ptr %.val17, i64 %indvars.iv
  %26 = load i32, ptr %25, align 4, !tbaa !38
  %27 = sext i32 %26 to i64
  %28 = getelementptr inbounds i32, ptr %.val20, i64 %27
  store i32 %23, ptr %28, align 4, !tbaa !38
  %indvars.iv.next = add nuw nsw i64 %indvars.iv, 1
  %.val = load i32, ptr %20, align 4, !tbaa !45
  %29 = sext i32 %.val to i64
  %30 = icmp slt i64 %indvars.iv.next, %29
  br i1 %30, label %24, label %.critedge2, !llvm.loop !80

.critedge2:                                       ; preds = %24, %18
  %indvars.iv.next28 = add nuw nsw i64 %indvars.iv27, 1
  %31 = icmp samesign ult i64 %indvars.iv.next28, %17
  br i1 %31, label %18, label %.critedge, !llvm.loop !81

.critedge:                                        ; preds = %.critedge2, %Vec_IntStartFull.exit
  ret ptr %3
}